; Function Attrs: null_pointer_is_valid sspstrong uwtable
define internal range(i32 -268435456, 268435456) i32 @dissect_DownlinkNASTransport_PDU(ptr noundef %0, ptr noundef %1, ptr noundef %2, ptr readnone captures(none) %3) #0 {
  %5 = alloca %struct._asn1_ctx_t, align 8
  call void @llvm.lifetime.start.p0(i64 208, ptr nonnull %5) #12
  call void @asn1_ctx_init(ptr noundef nonnull %5, i32 noundef 1, i1 noundef zeroext true, ptr noundef %1)
  %6 = load i32, ptr @hf_ngap_DownlinkNASTransport_PDU, align 4
  %7 = getelementptr inbounds nuw i8, ptr %5, i64 16
  %8 = load ptr, ptr %7, align 8
  %9 = getelementptr inbounds nuw i8, ptr %8, i64 384
  store i32 1, ptr %9, align 8
  %10 = call ptr @val_to_str_const(i32 noundef 26, ptr noundef nonnull @mtype_names, ptr noundef nonnull @.str.3482)
  %11 = load ptr, ptr %7, align 8
  %12 = getelementptr inbounds nuw i8, ptr %11, i64 8
  %13 = load ptr, ptr %12, align 8
  call void @col_append_sep_str(ptr noundef %13, i32 noundef 25, ptr noundef null, ptr noundef %10)
  %14 = load ptr, ptr @top_tree, align 8
  call void (ptr, ptr, ...) @proto_item_append_text(ptr noundef %14, ptr noundef nonnull @.str.3479, ptr noundef %10)
  %15 = load ptr, ptr %7, align 8
  %16 = getelementptr inbounds nuw i8, ptr %15, i64 408
  %17 = load ptr, ptr %16, align 8
  %18 = load i32, ptr @proto_ngap, align 4
  %19 = call ptr @p_get_proto_data(ptr noundef %17, ptr noundef %15, i32 noundef %18, i32 noundef 0)
  %.not.i.i.i = icmp eq ptr %19, null
  br i1 %.not.i.i.i, label %20, label %dissect_ngap_DownlinkNASTransport.exit

20:                                               ; preds = %4
  %21 = load ptr, ptr %16, align 8
  %22 = call noalias dereferenceable_or_null(72) ptr @wmem_alloc0(ptr noundef %21, i64 noundef 72) #13
  %23 = getelementptr inbounds nuw i8, ptr %22, i64 24
  store i32 -1, ptr %23, align 8
  %24 = getelementptr inbounds nuw i8, ptr %22, i64 56
  store i8 -1, ptr %24, align 8
  %25 = load ptr, ptr %16, align 8
  %26 = load i32, ptr @proto_ngap, align 4
  call void @p_add_proto_data(ptr noundef %25, ptr noundef %15, i32 noundef %26, i32 noundef 0, ptr noundef %22)
  br label %dissect_ngap_DownlinkNASTransport.exit

dissect_ngap_DownlinkNASTransport.exit:           ; preds = %4, %20
  %.0.i.i.i = phi ptr [ %19, %4 ], [ %22, %20 ]
  %27 = getelementptr inbounds nuw i8, ptr %.0.i.i.i, i64 64
  %28 = load ptr, ptr %27, align 8
  store i32 26, ptr %28, align 4
  %29 = load i32, ptr @ett_ngap_DownlinkNASTransport, align 4
  %30 = call i32 @dissect_per_sequence(ptr noundef %0, i32 noundef 0, ptr noundef nonnull %5, ptr noundef %2, i32 noundef %6, i32 noundef %29, ptr noundef nonnull @DownlinkNASTransport_sequence)
  %31 = add i32 %30, 7
  %32 = ashr i32 %31, 3
  call void @llvm.lifetime.end.p0(i64 208, ptr nonnull %5) #12
  ret i32 %32
}